target datalayout = "e-m:e-p270:32:32-p271:32:32-p272:64:64-i64:64-i128:128-f80:128-n8:16:32:64-S128"
target triple = "x86_64-pc-linux-gnu"

%struct.AVChannelLayout = type { i32, i32, %union.anon.1, ptr }
%union.anon.1 = type { i64 }
%struct.AVCodecContext = type { ptr, i32, i32, ptr, i32, i32, ptr, ptr, ptr, i64, i32, i32, ptr, i32, %struct.AVRational, %struct.AVRational, %struct.AVRational, i32, i32, i32, i32, i32, %struct.AVRational, i32, i32, i32, i32, i32, i32, i32, i32, i32, i32, i32, ptr, ptr, i32, float, float, float, float, float, float, float, float, float, i32, i32, i32, i32, i32, i32, i32, i32, i32, i32, i32, i32, ptr, ptr, ptr, i32, i32, i32, i32, i32, i32, i32, i32, i32, i32, %struct.AVChannelLayout, i32, i32, i32, i32, i32, i32, i32, i32, ptr, i32, i32, i32, float, float, i32, i32, i32, i32, i32, ptr, i64, i64, float, float, i32, i32, ptr, ptr, i32, i32, i32, i32, i32, ptr, ptr, ptr, ptr, i32, i32, [8 x i64], i32, i32, i32, i32, i32, i32, i32, ptr, ptr, i32, i32, i32, i32, i32, i32, i32, i32, i32, i32, ptr, ptr, i32, i32, ptr, ptr, ptr, ptr, i32, i32, i64, i32, i32, i64, ptr, i64, ptr, i32, ptr, i32 }
%struct.AVRational = type { i32, i32 }
%struct.AC3DecodeContext = type { ptr, ptr, %struct.GetBitContext, %struct.BswapDSPContext, ptr, %struct.AC3DSPContext, %struct.FmtConvertContext, ptr, ptr, ptr, ptr, [7 x ptr], [7 x ptr], %struct.AVChannelLayout, [2 x ptr], i32, i32, i32, i32, i32, i32, i32, i32, i32, i32, i32, [2 x i32], [2 x i32], i32, i32, i32, i32, i32, i32, i32, i32, i32, i32, i32, i32, i32, i32, i32, float, float, float, float, i32, [2 x float], i32, i32, i32, i32, i32, i32, i32, [6 x i32], [6 x i32], [7 x i32], i32, [18 x i32], i32, [18 x i8], [18 x i8], i32, [7 x i32], [7 x [18 x i32]], i32, [7 x i8], [7 x i8], i32, i32, i32, i32, [17 x i8], [17 x i8], [7 x i8], [7 x [17 x i32]], [7 x [17 x i32]], [7 x i32], [7 x [256 x [6 x i32]]], i32, i32, i32, i32, i32, i32, i32, i32, [2 x i32], i32, i32, [2 x i32], [7 x i32], [7 x i32], i32, i32, [4 x i32], [7 x i32], [7 x [256 x i8]], [6 x [7 x i32]], %struct.AC3BitAllocParameters, i32, [7 x i32], [7 x i32], [7 x [256 x i8]], [7 x [256 x i16]], [7 x [50 x i16]], [7 x [50 x i16]], [7 x i32], [7 x i32], [7 x [8 x i8]], [7 x [8 x i8]], [7 x [8 x i8]], [7 x i32], %struct.AVLFG, [7 x i32], [7 x ptr], [7 x [256 x i32]], [7 x [256 x i32]], [16 x [256 x i32]], [256 x i32], [256 x i32], [16 x [256 x i16]], [32832 x i8], [16 x [1536 x i16]] }
%struct.GetBitContext = type { ptr, ptr, i32, i32, i32 }
%struct.BswapDSPContext = type { ptr, ptr }
%struct.AC3DSPContext = type { ptr, ptr, ptr, ptr, ptr, ptr, ptr, ptr, i32, i32, ptr, ptr }
%struct.FmtConvertContext = type { ptr, ptr }
%struct.AC3BitAllocParameters = type { i32, i32, i32, i32, i32, i32, i32, i32, i32 }
%struct.AVLFG = type { [64 x i32], i32 }

@ac3_decode_init.init_static_once = internal global i32 0, align 4
@__const.ac3_downmix.mono = private unnamed_addr constant %struct.AVChannelLayout { i32 1, i32 1, %union.anon.1 { i64 4 }, ptr null }, align 8
@__const.ac3_downmix.stereo = private unnamed_addr constant %struct.AVChannelLayout { i32 1, i32 2, %union.anon.1 { i64 3 }, ptr null }, align 8

; Function Attrs: nounwind uwtable
define internal void @ac3_downmix(ptr noundef %0) #1 {
  %2 = alloca ptr, align 8
  %3 = alloca ptr, align 8
  %4 = alloca %struct.AVChannelLayout, align 8
  %5 = alloca %struct.AVChannelLayout, align 8
  %6 = alloca %struct.AVChannelLayout, align 8
  %7 = alloca %struct.AVChannelLayout, align 8
  store ptr %0, ptr %2, align 8, !tbaa !4
  call void @llvm.lifetime.start.p0(i64 8, ptr %3) #13
  %8 = load ptr, ptr %2, align 8, !tbaa !4
  %9 = getelementptr inbounds nuw %struct.AVCodecContext, ptr %8, i32 0, i32 6
  %10 = load ptr, ptr %9, align 8, !tbaa !9
  store ptr %10, ptr %3, align 8, !tbaa !29
  call void @llvm.lifetime.start.p0(i64 24, ptr %4) #13
  call void @llvm.memcpy.p0.p0.i64(ptr align 8 %4, ptr align 8 @__const.ac3_downmix.mono, i64 24, i1 false)
  call void @llvm.lifetime.start.p0(i64 24, ptr %5) #13
  call void @llvm.memcpy.p0.p0.i64(ptr align 8 %5, ptr align 8 @__const.ac3_downmix.stereo, i64 24, i1 false)
  %11 = load ptr, ptr %2, align 8, !tbaa !4
  %12 = getelementptr inbounds nuw %struct.AVCodecContext, ptr %11, i32 0, i32 71
  %13 = getelementptr inbounds nuw %struct.AVChannelLayout, ptr %12, i32 0, i32 1
  %14 = load i32, ptr %13, align 4, !tbaa !122
  %15 = icmp sgt i32 %14, 1
  br i1 %15, label %16, label %30

16:                                               ; preds = %1
  %17 = load ptr, ptr %3, align 8, !tbaa !29
  %18 = getelementptr inbounds nuw %struct.AC3DecodeContext, ptr %17, i32 0, i32 13
  %19 = call i32 @av_channel_layout_compare(ptr noundef %18, ptr noundef %4)
  %20 = icmp ne i32 %19, 0
  br i1 %20, label %30, label %21

21:                                               ; preds = %16
  %22 = load ptr, ptr %2, align 8, !tbaa !4
  %23 = getelementptr inbounds nuw %struct.AVCodecContext, ptr %22, i32 0, i32 71
  call void @av_channel_layout_uninit(ptr noundef %23)
  %24 = load ptr, ptr %2, align 8, !tbaa !4
  %25 = getelementptr inbounds nuw %struct.AVCodecContext, ptr %24, i32 0, i32 71
  %26 = getelementptr inbounds nuw %struct.AVChannelLayout, ptr %6, i32 0, i32 0
  store i32 1, ptr %26, align 8, !tbaa !71
  %27 = getelementptr inbounds nuw %struct.AVChannelLayout, ptr %6, i32 0, i32 1
  store i32 1, ptr %27, align 4, !tbaa !72
  %28 = getelementptr inbounds nuw %struct.AVChannelLayout, ptr %6, i32 0, i32 2
  store i64 4, ptr %28, align 8, !tbaa !59
  %29 = getelementptr inbounds nuw %struct.AVChannelLayout, ptr %6, i32 0, i32 3
  store ptr null, ptr %29, align 8, !tbaa !73
  call void @llvm.memcpy.p0.p0.i64(ptr align 8 %25, ptr align 8 %6, i64 24, i1 false), !tbaa.struct !140
  br label %51

30:                                               ; preds = %16, %1
  %31 = load ptr, ptr %2, align 8, !tbaa !4
  %32 = getelementptr inbounds nuw %struct.AVCodecContext, ptr %31, i32 0, i32 71
  %33 = getelementptr inbounds nuw %struct.AVChannelLayout, ptr %32, i32 0, i32 1
  %34 = load i32, ptr %33, align 4, !tbaa !122
  %35 = icmp sgt i32 %34, 2
  br i1 %35, label %36, label %50

36:                                               ; preds = %30
  %37 = load ptr, ptr %3, align 8, !tbaa !29
  %38 = getelementptr inbounds nuw %struct.AC3DecodeContext, ptr %37, i32 0, i32 13
  %39 = call i32 @av_channel_layout_compare(ptr noundef %38, ptr noundef %5)
  %40 = icmp ne i32 %39, 0
  br i1 %40, label %50, label %41

41:                                               ; preds = %36
  %42 = load ptr, ptr %2, align 8, !tbaa !4
  %43 = getelementptr inbounds nuw %struct.AVCodecContext, ptr %42, i32 0, i32 71
  call void @av_channel_layout_uninit(ptr noundef %43)
  %44 = load ptr, ptr %2, align 8, !tbaa !4
  %45 = getelementptr inbounds nuw %struct.AVCodecContext, ptr %44, i32 0, i32 71
  %46 = getelementptr inbounds nuw %struct.AVChannelLayout, ptr %7, i32 0, i32 0
  store i32 1, ptr %46, align 8, !tbaa !71
  %47 = getelementptr inbounds nuw %struct.AVChannelLayout, ptr %7, i32 0, i32 1
  store i32 2, ptr %47, align 4, !tbaa !72
  %48 = getelementptr inbounds nuw %struct.AVChannelLayout, ptr %7, i32 0, i32 2
  store i64 3, ptr %48, align 8, !tbaa !59
  %49 = getelementptr inbounds nuw %struct.AVChannelLayout, ptr %7, i32 0, i32 3
  store ptr null, ptr %49, align 8, !tbaa !73
  call void @llvm.memcpy.p0.p0.i64(ptr align 8 %45, ptr align 8 %7, i64 24, i1 false), !tbaa.struct !140
  br label %50

50:                                               ; preds = %41, %36, %30
  br label %51

51:                                               ; preds = %50, %21
  call void @llvm.lifetime.end.p0(i64 24, ptr %5) #13
  call void @llvm.lifetime.end.p0(i64 24, ptr %4) #13
  call void @llvm.lifetime.end.p0(i64 8, ptr %3) #13
  ret void
}

; Function Attrs: cold nounwind optsize uwtable
define internal i32 @ac3_decode_init(ptr noundef %0) #0 {
  %2 = alloca i32, align 4
  %3 = alloca ptr, align 8
  %4 = alloca ptr, align 8
  %5 = alloca float, align 4
  %6 = alloca i32, align 4
  %7 = alloca i32, align 4
  %8 = alloca i32, align 4
  store ptr %0, ptr %3, align 8, !tbaa !4
  call void @llvm.lifetime.start.p0(i64 8, ptr %4) #13
  %9 = load ptr, ptr %3, align 8, !tbaa !4
  %10 = getelementptr inbounds nuw %struct.AVCodecContext, ptr %9, i32 0, i32 6
  %11 = load ptr, ptr %10, align 8, !tbaa !9
  store ptr %11, ptr %4, align 8, !tbaa !29
  call void @llvm.lifetime.start.p0(i64 4, ptr %5) #13
  store float 1.000000e+00, ptr %5, align 4, !tbaa !31
  call void @llvm.lifetime.start.p0(i64 4, ptr %6) #13
  call void @llvm.lifetime.start.p0(i64 4, ptr %7) #13
  %12 = load ptr, ptr %3, align 8, !tbaa !4
  %13 = load ptr, ptr %4, align 8, !tbaa !29
  %14 = getelementptr inbounds nuw %struct.AC3DecodeContext, ptr %13, i32 0, i32 1
  store ptr %12, ptr %14, align 8, !tbaa !32
  %15 = load ptr, ptr %4, align 8, !tbaa !29
  %16 = getelementptr inbounds nuw %struct.AC3DecodeContext, ptr %15, i32 0, i32 7
  %17 = load ptr, ptr %4, align 8, !tbaa !29
  %18 = getelementptr inbounds nuw %struct.AC3DecodeContext, ptr %17, i32 0, i32 9
  %19 = call i32 @av_tx_init(ptr noundef %16, ptr noundef %18, i32 noundef 5, i32 noundef 1, i32 noundef 128, ptr noundef %5, i64 noundef 0)
  store i32 %19, ptr %7, align 4, !tbaa !42
  %20 = icmp ne i32 %19, 0
  br i1 %20, label %21, label %23

21:                                               ; preds = %1
  %22 = load i32, ptr %7, align 4, !tbaa !42
  store i32 %22, ptr %2, align 4
  store i32 1, ptr %8, align 4
  br label %91

23:                                               ; preds = %1
  %24 = load ptr, ptr %4, align 8, !tbaa !29
  %25 = getelementptr inbounds nuw %struct.AC3DecodeContext, ptr %24, i32 0, i32 8
  %26 = load ptr, ptr %4, align 8, !tbaa !29
  %27 = getelementptr inbounds nuw %struct.AC3DecodeContext, ptr %26, i32 0, i32 10
  %28 = call i32 @av_tx_init(ptr noundef %25, ptr noundef %27, i32 noundef 5, i32 noundef 1, i32 noundef 256, ptr noundef %5, i64 noundef 0)
  store i32 %28, ptr %7, align 4, !tbaa !42
  %29 = icmp ne i32 %28, 0
  br i1 %29, label %30, label %32

30:                                               ; preds = %23
  %31 = load i32, ptr %7, align 4, !tbaa !42
  store i32 %31, ptr %2, align 4
  store i32 1, ptr %8, align 4
  br label %91

32:                                               ; preds = %23
  %33 = load ptr, ptr %4, align 8, !tbaa !29
  %34 = getelementptr inbounds nuw %struct.AC3DecodeContext, ptr %33, i32 0, i32 121
  %35 = getelementptr inbounds [256 x i32], ptr %34, i64 0, i64 0
  call void @ff_kbd_window_init_fixed(ptr noundef %35, float noundef 5.000000e+00, i32 noundef 256)
  %36 = load ptr, ptr %4, align 8, !tbaa !29
  %37 = getelementptr inbounds nuw %struct.AC3DecodeContext, ptr %36, i32 0, i32 3
  call void @ff_bswapdsp_init(ptr noundef %37)
  %38 = load ptr, ptr %3, align 8, !tbaa !4
  %39 = getelementptr inbounds nuw %struct.AVCodecContext, ptr %38, i32 0, i32 10
  %40 = load i32, ptr %39, align 8, !tbaa !43
  %41 = and i32 %40, 8388608
  %42 = call ptr @avpriv_alloc_fixed_dsp(i32 noundef %41)
  %43 = load ptr, ptr %4, align 8, !tbaa !29
  %44 = getelementptr inbounds nuw %struct.AC3DecodeContext, ptr %43, i32 0, i32 4
  store ptr %42, ptr %44, align 16, !tbaa !44
  %45 = load ptr, ptr %4, align 8, !tbaa !29
  %46 = getelementptr inbounds nuw %struct.AC3DecodeContext, ptr %45, i32 0, i32 4
  %47 = load ptr, ptr %46, align 16, !tbaa !44
  %48 = icmp ne ptr %47, null
  br i1 %48, label %50, label %49

49:                                               ; preds = %32
  store i32 -12, ptr %2, align 4
  store i32 1, ptr %8, align 4
  br label %91

50:                                               ; preds = %32
  %51 = load ptr, ptr %4, align 8, !tbaa !29
  %52 = getelementptr inbounds nuw %struct.AC3DecodeContext, ptr %51, i32 0, i32 5
  call void @ff_ac3dsp_init(ptr noundef %52)
  %53 = load ptr, ptr %4, align 8, !tbaa !29
  %54 = getelementptr inbounds nuw %struct.AC3DecodeContext, ptr %53, i32 0, i32 115
  call void @av_lfg_init(ptr noundef %54, i32 noundef 0)
  %55 = load ptr, ptr %3, align 8, !tbaa !4
  %56 = getelementptr inbounds nuw %struct.AVCodecContext, ptr %55, i32 0, i32 70
  store i32 6, ptr %56, align 4, !tbaa !45
  %57 = load ptr, ptr %3, align 8, !tbaa !4
  call void @ac3_downmix(ptr noundef %57)
  %58 = load ptr, ptr %4, align 8, !tbaa !29
  %59 = getelementptr inbounds nuw %struct.AC3DecodeContext, ptr %58, i32 0, i32 84
  store i32 1, ptr %59, align 16, !tbaa !46
  store i32 0, ptr %6, align 4, !tbaa !42
  br label %60

60:                                               ; preds = %86, %50
  %61 = load i32, ptr %6, align 4, !tbaa !42
  %62 = icmp slt i32 %61, 7
  br i1 %62, label %63, label %89

63:                                               ; preds = %60
  %64 = load ptr, ptr %4, align 8, !tbaa !29
  %65 = getelementptr inbounds nuw %struct.AC3DecodeContext, ptr %64, i32 0, i32 119
  %66 = load i32, ptr %6, align 4, !tbaa !42
  %67 = sext i32 %66 to i64
  %68 = getelementptr inbounds [7 x [256 x i32]], ptr %65, i64 0, i64 %67
  %69 = getelementptr inbounds [256 x i32], ptr %68, i64 0, i64 0
  %70 = load ptr, ptr %4, align 8, !tbaa !29
  %71 = getelementptr inbounds nuw %struct.AC3DecodeContext, ptr %70, i32 0, i32 11
  %72 = load i32, ptr %6, align 4, !tbaa !42
  %73 = sext i32 %72 to i64
  %74 = getelementptr inbounds [7 x ptr], ptr %71, i64 0, i64 %73
  store ptr %69, ptr %74, align 8, !tbaa !47
  %75 = load ptr, ptr %4, align 8, !tbaa !29
  %76 = getelementptr inbounds nuw %struct.AC3DecodeContext, ptr %75, i32 0, i32 120
  %77 = load i32, ptr %6, align 4, !tbaa !42
  %78 = sext i32 %77 to i64
  %79 = getelementptr inbounds [16 x [256 x i32]], ptr %76, i64 0, i64 %78
  %80 = getelementptr inbounds [256 x i32], ptr %79, i64 0, i64 0
  %81 = load ptr, ptr %4, align 8, !tbaa !29
  %82 = getelementptr inbounds nuw %struct.AC3DecodeContext, ptr %81, i32 0, i32 12
  %83 = load i32, ptr %6, align 4, !tbaa !42
  %84 = sext i32 %83 to i64
  %85 = getelementptr inbounds [7 x ptr], ptr %82, i64 0, i64 %84
  store ptr %80, ptr %85, align 8, !tbaa !47
  br label %86

86:                                               ; preds = %63
  %87 = load i32, ptr %6, align 4, !tbaa !42
  %88 = add nsw i32 %87, 1
  store i32 %88, ptr %6, align 4, !tbaa !42
  br label %60, !llvm.loop !48

89:                                               ; preds = %60
  %90 = call i32 @pthread_once(ptr noundef @ac3_decode_init.init_static_once, ptr noundef @ac3_tables_init)
  store i32 0, ptr %2, align 4
  store i32 1, ptr %8, align 4
  br label %91

91:                                               ; preds = %89, %49, %30, %21
  call void @llvm.lifetime.end.p0(i64 4, ptr %7) #13
  call void @llvm.lifetime.end.p0(i64 4, ptr %6) #13
  call void @llvm.lifetime.end.p0(i64 4, ptr %5) #13
  call void @llvm.lifetime.end.p0(i64 8, ptr %4) #13
  %92 = load i32, ptr %2, align 4
  ret i32 %92
}