; Function Attrs: cold nounwind optsize uwtable
define internal i32 @ac3_decode_init(ptr noundef %0) #0 {
  %2 = alloca %struct.AVChannelLayout, align 8
  %3 = alloca %struct.AVChannelLayout, align 8
  %4 = alloca float, align 4
  %5 = getelementptr inbounds nuw i8, ptr %0, i64 32
  %6 = load ptr, ptr %5, align 8, !tbaa !4
  call void @llvm.lifetime.start.p0(i64 4, ptr nonnull %4) #12
  store float 1.000000e+00, ptr %4, align 4, !tbaa !27
  %7 = getelementptr inbounds nuw i8, ptr %6, i64 8
  store ptr %0, ptr %7, align 8, !tbaa !28
  %8 = getelementptr inbounds nuw i8, ptr %6, i64 176
  %9 = getelementptr inbounds nuw i8, ptr %6, i64 192
  %10 = call i32 @av_tx_init(ptr noundef nonnull %8, ptr noundef nonnull %9, i32 noundef 5, i32 noundef 1, i32 noundef 128, ptr noundef nonnull %4, i64 noundef 0) #12
  %.not = icmp eq i32 %10, 0
  br i1 %.not, label %11, label %51

11:                                               ; preds = %1
  %12 = getelementptr inbounds nuw i8, ptr %6, i64 184
  %13 = getelementptr inbounds nuw i8, ptr %6, i64 200
  %14 = call i32 @av_tx_init(ptr noundef nonnull %12, ptr noundef nonnull %13, i32 noundef 5, i32 noundef 1, i32 noundef 256, ptr noundef nonnull %4, i64 noundef 0) #12
  %.not32 = icmp eq i32 %14, 0
  br i1 %.not32, label %15, label %51

15:                                               ; preds = %11
  %16 = getelementptr inbounds nuw i8, ptr %6, i64 85648
  call void @ff_kbd_window_init_fixed(ptr noundef nonnull %16, float noundef 5.000000e+00, i32 noundef 256) #12
  %17 = getelementptr inbounds nuw i8, ptr %6, i64 48
  call void @ff_bswapdsp_init(ptr noundef nonnull %17) #12
  %18 = getelementptr inbounds nuw i8, ptr %0, i64 64
  %19 = load i32, ptr %18, align 8, !tbaa !39
  %20 = and i32 %19, 8388608
  %21 = call ptr @avpriv_alloc_fixed_dsp(i32 noundef %20) #12
  %22 = getelementptr inbounds nuw i8, ptr %6, i64 64
  store ptr %21, ptr %22, align 16, !tbaa !40
  %.not33 = icmp eq ptr %21, null
  br i1 %.not33, label %51, label %23

23:                                               ; preds = %15
  %24 = getelementptr inbounds nuw i8, ptr %6, i64 72
  call void @ff_ac3dsp_init(ptr noundef nonnull %24) #12
  %25 = getelementptr inbounds nuw i8, ptr %6, i64 54580
  call void @av_lfg_init(ptr noundef nonnull %25, i32 noundef 0) #12
  %26 = getelementptr inbounds nuw i8, ptr %0, i64 348
  store i32 6, ptr %26, align 4, !tbaa !41
  %27 = load ptr, ptr %5, align 8, !tbaa !4
  call void @llvm.lifetime.start.p0(i64 24, ptr nonnull %2) #12
  call void @llvm.memcpy.p0.p0.i64(ptr noundef nonnull align 8 dereferenceable(24) %2, ptr noundef nonnull align 8 dereferenceable(24) @__const.ac3_downmix.mono, i64 24, i1 false)
  call void @llvm.lifetime.start.p0(i64 24, ptr nonnull %3) #12
  call void @llvm.memcpy.p0.p0.i64(ptr noundef nonnull align 8 dereferenceable(24) %3, ptr noundef nonnull align 8 dereferenceable(24) @__const.ac3_downmix.stereo, i64 24, i1 false)
  %28 = getelementptr inbounds nuw i8, ptr %0, i64 352
  %29 = getelementptr inbounds nuw i8, ptr %0, i64 356
  %30 = load i32, ptr %29, align 4, !tbaa !42
  %31 = icmp sgt i32 %30, 1
  br i1 %31, label %32, label %ac3_downmix.exit

32:                                               ; preds = %23
  %33 = getelementptr inbounds nuw i8, ptr %27, i64 320
  %34 = call i32 @av_channel_layout_compare(ptr noundef nonnull %33, ptr noundef nonnull %2) #12
  %.not.i = icmp eq i32 %34, 0
  br i1 %.not.i, label %.thread.sink.split.i, label %35

35:                                               ; preds = %32
  %.pr.i = load i32, ptr %29, align 4, !tbaa !42
  %36 = icmp sgt i32 %.pr.i, 2
  br i1 %36, label %37, label %ac3_downmix.exit

37:                                               ; preds = %35
  %38 = call i32 @av_channel_layout_compare(ptr noundef nonnull %33, ptr noundef nonnull %3) #12
  %.not13.i = icmp eq i32 %38, 0
  br i1 %.not13.i, label %.thread.sink.split.i, label %ac3_downmix.exit

.thread.sink.split.i:                             ; preds = %37, %32
  %.sink14.i = phi i32 [ 1, %32 ], [ 2, %37 ]
  %.sink.i = phi i64 [ 4, %32 ], [ 3, %37 ]
  call void @av_channel_layout_uninit(ptr noundef nonnull %28) #12
  store i32 1, ptr %28, align 8, !tbaa !43
  store i32 %.sink14.i, ptr %29, align 4, !tbaa !43
  %.sroa.3.0..sroa_idx.i = getelementptr inbounds nuw i8, ptr %0, i64 360
  store i64 %.sink.i, ptr %.sroa.3.0..sroa_idx.i, align 8, !tbaa !44
  %.sroa.4.0..sroa_idx.i = getelementptr inbounds nuw i8, ptr %0, i64 368
  store ptr null, ptr %.sroa.4.0..sroa_idx.i, align 8, !tbaa !45
  br label %ac3_downmix.exit

ac3_downmix.exit:                                 ; preds = %23, %35, %37, %.thread.sink.split.i
  call void @llvm.lifetime.end.p0(i64 24, ptr nonnull %3) #12
  call void @llvm.lifetime.end.p0(i64 24, ptr nonnull %2) #12
  %39 = getelementptr inbounds nuw i8, ptr %6, i64 45344
  store i32 1, ptr %39, align 16, !tbaa !46
  %40 = getelementptr inbounds nuw i8, ptr %6, i64 62096
  %41 = getelementptr inbounds nuw i8, ptr %6, i64 208
  %42 = getelementptr inbounds nuw i8, ptr %6, i64 69264
  %43 = getelementptr inbounds nuw i8, ptr %6, i64 264
  br label %44

44:                                               ; preds = %ac3_downmix.exit, %44
  %indvars.iv = phi i64 [ 0, %ac3_downmix.exit ], [ %indvars.iv.next, %44 ]
  %45 = getelementptr inbounds nuw [7 x [256 x i32]], ptr %40, i64 0, i64 %indvars.iv
  %46 = getelementptr inbounds nuw [7 x ptr], ptr %41, i64 0, i64 %indvars.iv
  store ptr %45, ptr %46, align 8, !tbaa !47
  %47 = getelementptr inbounds nuw [16 x [256 x i32]], ptr %42, i64 0, i64 %indvars.iv
  %48 = getelementptr inbounds nuw [7 x ptr], ptr %43, i64 0, i64 %indvars.iv
  store ptr %47, ptr %48, align 8, !tbaa !47
  %indvars.iv.next = add nuw nsw i64 %indvars.iv, 1
  %exitcond.not = icmp eq i64 %indvars.iv.next, 7
  br i1 %exitcond.not, label %49, label %44, !llvm.loop !48

49:                                               ; preds = %44
  %50 = call i32 @pthread_once(ptr noundef nonnull @ac3_decode_init.init_static_once, ptr noundef nonnull @ac3_tables_init) #12
  br label %51

51:                                               ; preds = %15, %11, %1, %49
  %.029 = phi i32 [ 0, %49 ], [ %10, %1 ], [ %14, %11 ], [ -12, %15 ]
  call void @llvm.lifetime.end.p0(i64 4, ptr nonnull %4) #12
  ret i32 %.029
}